; Function Attrs: mustprogress null_pointer_is_valid sspstrong uwtable
define void @_ZN14InterfaceFrame20interfaceListChangedEv(ptr noundef align 8 dereferenceable_or_null(208) %0) #2 align 2 personality ptr @__gxx_personality_v0 {
  %2 = alloca %class.QModelIndex, align 8
  %3 = alloca %class.QString, align 8
  %4 = getelementptr inbounds nuw i8, ptr %0, i64 152
  tail call void @_ZN14InfoProxyModel10clearInfosEv(ptr noundef nonnull align 8 dereferenceable_or_null(48) %4)
  %5 = load i8, ptr getelementptr inbounds nuw (i8, ptr @prefs, i64 361), align 1, !range !42, !noundef !43
  %6 = trunc nuw i8 %5 to i1
  br i1 %6, label %7, label %_ZN7QStringD2Ev.exit

7:                                                ; preds = %1
  call void @_ZNK11QMetaObject2trEPKcS1_i(ptr dead_on_unwind nonnull writable sret(%class.QString) align 8 %3, ptr noundef nonnull align 8 dereferenceable_or_null(56) @_ZN14InterfaceFrame16staticMetaObjectE, ptr noundef nonnull @.str.14, ptr noundef null, i32 noundef -1)
  invoke void @_ZN14InfoProxyModel10appendInfoE7QString(ptr noundef nonnull align 8 dereferenceable_or_null(48) %4, ptr noundef nonnull %3)
          to label %8 unwind label %13

8:                                                ; preds = %7
  %9 = load ptr, ptr %3, align 8
  %.not.i.i.i = icmp eq ptr %9, null
  br i1 %.not.i.i.i, label %_ZN7QStringD2Ev.exit, label %_ZN17QArrayDataPointerIDsE5derefEv.exit.i.i

_ZN17QArrayDataPointerIDsE5derefEv.exit.i.i:      ; preds = %8
  %10 = atomicrmw sub ptr %9, i32 1 seq_cst, align 4
  %.not.i.i = icmp eq i32 %10, 1
  br i1 %.not.i.i, label %11, label %_ZN7QStringD2Ev.exit

11:                                               ; preds = %_ZN17QArrayDataPointerIDsE5derefEv.exit.i.i
  %12 = load ptr, ptr %3, align 8
  call void @_ZN10QArrayData10deallocateEPS_xx(ptr noundef %12, i64 noundef 2, i64 noundef 8) #28
  br label %_ZN7QStringD2Ev.exit

13:                                               ; preds = %7
  %14 = landingpad { ptr, i32 }
          cleanup
  %15 = load ptr, ptr %3, align 8
  %.not.i.i.i2 = icmp eq ptr %15, null
  br i1 %.not.i.i.i2, label %_ZN7QStringD2Ev.exit5, label %_ZN17QArrayDataPointerIDsE5derefEv.exit.i.i3

_ZN17QArrayDataPointerIDsE5derefEv.exit.i.i3:     ; preds = %13
  %16 = atomicrmw sub ptr %15, i32 1 seq_cst, align 4
  %.not.i.i4 = icmp eq i32 %16, 1
  br i1 %.not.i.i4, label %17, label %_ZN7QStringD2Ev.exit5

17:                                               ; preds = %_ZN17QArrayDataPointerIDsE5derefEv.exit.i.i3
  %18 = load ptr, ptr %3, align 8
  call void @_ZN10QArrayData10deallocateEPS_xx(ptr noundef %18, i64 noundef 2, i64 noundef 8) #28
  br label %_ZN7QStringD2Ev.exit5

_ZN7QStringD2Ev.exit5:                            ; preds = %13, %_ZN17QArrayDataPointerIDsE5derefEv.exit.i.i3, %17
  resume { ptr, i32 } %14

_ZN7QStringD2Ev.exit:                             ; preds = %11, %_ZN17QArrayDataPointerIDsE5derefEv.exit.i.i, %8, %1
  call void @_ZN14InterfaceFrame25resetInterfaceTreeDisplayEv(ptr noundef align 8 dereferenceable_or_null(208) %0)
  %19 = getelementptr inbounds nuw i8, ptr %0, i64 120
  call void @llvm.lifetime.start.p0(i64 24, ptr nonnull %2) #28
  store i32 -1, ptr %2, align 8
  %20 = getelementptr inbounds nuw i8, ptr %2, i64 4
  store i32 -1, ptr %20, align 4
  %21 = getelementptr inbounds nuw i8, ptr %2, i64 8
  call void @llvm.memset.p0.i64(ptr noundef nonnull align 8 dereferenceable(16) %21, i8 0, i64 16, i1 false)
  %22 = call noundef i32 @_ZNK18InterfaceTreeModel8rowCountERK11QModelIndex(ptr noundef nonnull align 8 dereferenceable_or_null(32) %19, ptr noundef nonnull align 8 dereferenceable(24) %2)
  call void @llvm.lifetime.end.p0(i64 24, ptr nonnull %2) #28
  ret void
}